target datalayout = "e-m:e-p270:32:32-p271:32:32-p272:64:64-i64:64-i128:128-f80:128-n8:16:32:64-S128"
target triple = "x86_64-pc-linux-gnu"

%"struct.std::array" = type { [54 x %"struct.open_spiel::tarok::Card"] }
%"struct.open_spiel::tarok::Card" = type { i32, i32, i32, %"class.std::__cxx11::basic_string", %"class.std::__cxx11::basic_string" }
%"class.std::__cxx11::basic_string" = type { %"struct.std::__cxx11::basic_string<char>::_Alloc_hider", i64, %union.anon }
%"struct.std::__cxx11::basic_string<char>::_Alloc_hider" = type { ptr }
%union.anon = type { i64, [8 x i8] }
%"class.std::allocator" = type { i8 }

@_ZN10open_spiel5tarokL9card_deckE = internal global %"struct.std::array" zeroinitializer, align 8
@.str.4 = private unnamed_addr constant [19 x i8] c"Invalid long_name!\00", align 1
@.str.320 = private unnamed_addr constant [52 x i8] c"array::at: __n (which is %zu) >= _Nm (which is %zu)\00", align 1

; Function Attrs: noreturn nounwind uwtable
define linkonce_odr hidden void @__clang_call_terminate(ptr noundef %0) #11 comdat {
  %2 = call ptr @__cxa_begin_catch(ptr %0) #3
  call void @_ZSt9terminatev() #19
  unreachable
}

; Function Attrs: mustprogress nounwind uwtable
define linkonce_odr dso_local noundef i32 @_ZNSt11char_traitsIcE7compareEPKcS2_m(ptr noundef %0, ptr noundef %1, i64 noundef %2) #4 comdat align 2 {
  %4 = alloca i32, align 4
  %5 = alloca ptr, align 8
  %6 = alloca ptr, align 8
  %7 = alloca i64, align 8
  store ptr %0, ptr %5, align 8
  store ptr %1, ptr %6, align 8
  store i64 %2, ptr %7, align 8
  %8 = load i64, ptr %7, align 8
  %9 = icmp eq i64 %8, 0
  br i1 %9, label %10, label %11

10:                                               ; preds = %3
  store i32 0, ptr %4, align 4
  br label %16

11:                                               ; preds = %3
  %12 = load ptr, ptr %5, align 8
  %13 = load ptr, ptr %6, align 8
  %14 = load i64, ptr %7, align 8
  %15 = call i32 @memcmp(ptr noundef %12, ptr noundef %13, i64 noundef %14) #3
  store i32 %15, ptr %4, align 4
  br label %16

16:                                               ; preds = %11, %10
  %17 = load i32, ptr %4, align 4
  ret i32 %17
}

; Function Attrs: mustprogress nounwind uwtable
define linkonce_odr dso_local noundef nonnull align 8 dereferenceable(80) ptr @_ZNSt14__array_traitsIN10open_spiel5tarok4CardELm54EE6_S_refERA54_KS2_m(ptr noundef nonnull align 8 dereferenceable(4320) %0, i64 noundef %1) #4 comdat align 2 {
  %3 = alloca ptr, align 8
  %4 = alloca i64, align 8
  store ptr %0, ptr %3, align 8
  store i64 %1, ptr %4, align 8
  %5 = load ptr, ptr %3, align 8
  %6 = load i64, ptr %4, align 8
  %7 = getelementptr inbounds [54 x %"struct.open_spiel::tarok::Card"], ptr %5, i64 0, i64 %6
  ret ptr %7
}

; Function Attrs: mustprogress nounwind uwtable
define linkonce_odr dso_local noundef zeroext i1 @_ZSteqIcEN9__gnu_cxx11__enable_ifIXsr9__is_charIT_EE7__valueEbE6__typeERKNSt7__cxx1112basic_stringIS2_St11char_traitsIS2_ESaIS2_EEESC_(ptr noundef nonnull align 8 dereferenceable(32) %0, ptr noundef nonnull align 8 dereferenceable(32) %1) #4 comdat personality ptr @__gxx_personality_v0 {
  %3 = alloca ptr, align 8
  %4 = alloca ptr, align 8
  store ptr %0, ptr %3, align 8
  store ptr %1, ptr %4, align 8
  %5 = load ptr, ptr %3, align 8
  %6 = call noundef i64 @_ZNKSt7__cxx1112basic_stringIcSt11char_traitsIcESaIcEE4sizeEv(ptr noundef nonnull align 8 dereferenceable(32) %5) #3
  %7 = load ptr, ptr %4, align 8
  %8 = call noundef i64 @_ZNKSt7__cxx1112basic_stringIcSt11char_traitsIcESaIcEE4sizeEv(ptr noundef nonnull align 8 dereferenceable(32) %7) #3
  %9 = icmp eq i64 %6, %8
  br i1 %9, label %10, label %21

10:                                               ; preds = %2
  %11 = load ptr, ptr %3, align 8
  %12 = call noundef ptr @_ZNKSt7__cxx1112basic_stringIcSt11char_traitsIcESaIcEE4dataEv(ptr noundef nonnull align 8 dereferenceable(32) %11) #3
  %13 = load ptr, ptr %4, align 8
  %14 = call noundef ptr @_ZNKSt7__cxx1112basic_stringIcSt11char_traitsIcESaIcEE4dataEv(ptr noundef nonnull align 8 dereferenceable(32) %13) #3
  %15 = load ptr, ptr %3, align 8
  %16 = call noundef i64 @_ZNKSt7__cxx1112basic_stringIcSt11char_traitsIcESaIcEE4sizeEv(ptr noundef nonnull align 8 dereferenceable(32) %15) #3
  %17 = invoke noundef i32 @_ZNSt11char_traitsIcE7compareEPKcS2_m(ptr noundef %12, ptr noundef %14, i64 noundef %16)
          to label %18 unwind label %23

18:                                               ; preds = %10
  %19 = icmp ne i32 %17, 0
  %20 = xor i1 %19, true
  br label %21

21:                                               ; preds = %18, %2
  %22 = phi i1 [ false, %2 ], [ %20, %18 ]
  ret i1 %22

23:                                               ; preds = %10
  %24 = landingpad { ptr, i32 }
          catch ptr null
  %25 = extractvalue { ptr, i32 } %24, 0
  call void @__clang_call_terminate(ptr %25) #19
  unreachable
}

; Function Attrs: mustprogress uwtable
define linkonce_odr dso_local noundef nonnull align 8 dereferenceable(80) ptr @_ZNKSt5arrayIN10open_spiel5tarok4CardELm54EE2atEm(ptr noundef nonnull align 8 dereferenceable(4320) %0, i64 noundef %1) #5 comdat align 2 {
  %3 = alloca ptr, align 8
  %4 = alloca i64, align 8
  store ptr %0, ptr %3, align 8
  store i64 %1, ptr %4, align 8
  %5 = load ptr, ptr %3, align 8
  %6 = load i64, ptr %4, align 8
  %7 = icmp ult i64 %6, 54
  br i1 %7, label %8, label %12

8:                                                ; preds = %2
  %9 = getelementptr inbounds nuw %"struct.std::array", ptr %5, i32 0, i32 0
  %10 = load i64, ptr %4, align 8
  %11 = call noundef nonnull align 8 dereferenceable(80) ptr @_ZNSt14__array_traitsIN10open_spiel5tarok4CardELm54EE6_S_refERA54_KS2_m(ptr noundef nonnull align 8 dereferenceable(4320) %9, i64 noundef %10) #3
  br label %17

12:                                               ; preds = %2
  %13 = load i64, ptr %4, align 8
  call void (ptr, ...) @_ZSt24__throw_out_of_range_fmtPKcz(ptr noundef @.str.320, i64 noundef %13, i64 noundef 54) #18
  unreachable

14:                                               ; No predecessors!
  %15 = getelementptr inbounds nuw %"struct.std::array", ptr %5, i32 0, i32 0
  %16 = call noundef nonnull align 8 dereferenceable(80) ptr @_ZNSt14__array_traitsIN10open_spiel5tarok4CardELm54EE6_S_refERA54_KS2_m(ptr noundef nonnull align 8 dereferenceable(4320) %15, i64 noundef 0) #3
  br label %17

17:                                               ; preds = %14, %8
  %18 = phi ptr [ %11, %8 ], [ %16, %14 ]
  ret ptr %18
}

; Function Attrs: mustprogress nounwind willreturn memory(none) uwtable
define linkonce_odr dso_local noundef i64 @_ZNKSt5arrayIN10open_spiel5tarok4CardELm54EE4sizeEv(ptr noundef nonnull align 8 dereferenceable(4320) %0) #6 comdat align 2 {
  %2 = alloca ptr, align 8
  store ptr %0, ptr %2, align 8
  ret i64 54
}

; Function Attrs: mustprogress uwtable
define dso_local noundef i64 @_ZN10open_spiel5tarok20CardLongNameToActionERKNSt7__cxx1112basic_stringIcSt11char_traitsIcESaIcEEE(ptr noundef nonnull align 8 dereferenceable(32) %0) #5 personality ptr @__gxx_personality_v0 {
  %2 = alloca ptr, align 8
  %3 = alloca i32, align 4
  %4 = alloca %"class.std::__cxx11::basic_string", align 8
  %5 = alloca %"class.std::allocator", align 1
  %6 = alloca ptr, align 8
  %7 = alloca i32, align 4
  store ptr %0, ptr %2, align 8
  store i32 0, ptr %3, align 4
  br label %8

8:                                                ; preds = %24, %1
  %9 = load i32, ptr %3, align 4
  %10 = sext i32 %9 to i64
  %11 = call noundef i64 @_ZNKSt5arrayIN10open_spiel5tarok4CardELm54EE4sizeEv(ptr noundef nonnull align 8 dereferenceable(4320) @_ZN10open_spiel5tarokL9card_deckE) #20
  %12 = icmp ult i64 %10, %11
  br i1 %12, label %13, label %27

13:                                               ; preds = %8
  %14 = load i32, ptr %3, align 4
  %15 = sext i32 %14 to i64
  %16 = call noundef nonnull align 8 dereferenceable(80) ptr @_ZNKSt5arrayIN10open_spiel5tarok4CardELm54EE2atEm(ptr noundef nonnull align 8 dereferenceable(4320) @_ZN10open_spiel5tarokL9card_deckE, i64 noundef %15)
  %17 = getelementptr inbounds nuw %"struct.open_spiel::tarok::Card", ptr %16, i32 0, i32 4
  %18 = load ptr, ptr %2, align 8
  %19 = call noundef zeroext i1 @_ZSteqIcEN9__gnu_cxx11__enable_ifIXsr9__is_charIT_EE7__valueEbE6__typeERKNSt7__cxx1112basic_stringIS2_St11char_traitsIS2_ESaIS2_EEESC_(ptr noundef nonnull align 8 dereferenceable(32) %17, ptr noundef nonnull align 8 dereferenceable(32) %18) #3
  br i1 %19, label %20, label %23

20:                                               ; preds = %13
  %21 = load i32, ptr %3, align 4
  %22 = sext i32 %21 to i64
  ret i64 %22

23:                                               ; preds = %13
  br label %24

24:                                               ; preds = %23
  %25 = load i32, ptr %3, align 4
  %26 = add nsw i32 %25, 1
  store i32 %26, ptr %3, align 4
  br label %8, !llvm.loop !5

27:                                               ; preds = %8
  call void @_ZNSaIcEC1Ev(ptr noundef nonnull align 1 dereferenceable(1) %5) #3
  invoke void @_ZNSt7__cxx1112basic_stringIcSt11char_traitsIcESaIcEEC2IS3_EEPKcRKS3_(ptr noundef nonnull align 8 dereferenceable(32) %4, ptr noundef @.str.4, ptr noundef nonnull align 1 dereferenceable(1) %5)
          to label %28 unwind label %30

28:                                               ; preds = %27
  invoke void @_ZN10open_spiel15SpielFatalErrorERKNSt7__cxx1112basic_stringIcSt11char_traitsIcESaIcEEE(ptr noundef nonnull align 8 dereferenceable(32) %4) #18
          to label %29 unwind label %34

29:                                               ; preds = %28
  unreachable

30:                                               ; preds = %27
  %31 = landingpad { ptr, i32 }
          cleanup
  %32 = extractvalue { ptr, i32 } %31, 0
  store ptr %32, ptr %6, align 8
  %33 = extractvalue { ptr, i32 } %31, 1
  store i32 %33, ptr %7, align 4
  br label %38

34:                                               ; preds = %28
  %35 = landingpad { ptr, i32 }
          cleanup
  %36 = extractvalue { ptr, i32 } %35, 0
  store ptr %36, ptr %6, align 8
  %37 = extractvalue { ptr, i32 } %35, 1
  store i32 %37, ptr %7, align 4
  call void @_ZNSt7__cxx1112basic_stringIcSt11char_traitsIcESaIcEED1Ev(ptr noundef nonnull align 8 dereferenceable(32) %4) #3
  br label %38

38:                                               ; preds = %34, %30
  call void @_ZNSaIcED1Ev(ptr noundef nonnull align 1 dereferenceable(1) %5) #3
  br label %39

39:                                               ; preds = %38
  %40 = load ptr, ptr %6, align 8
  %41 = load i32, ptr %7, align 4
  %42 = insertvalue { ptr, i32 } poison, ptr %40, 0
  %43 = insertvalue { ptr, i32 } %42, i32 %41, 1
  resume { ptr, i32 } %43
}